; Function Attrs: mustprogress uwtable
define dso_local noundef i32 @_ZN11cmXMLParser10ParseChunkEPKcm(ptr noundef nonnull align 8 dereferenceable(40) %0, ptr noundef %1, i64 noundef %2) unnamed_addr #7 align 2 {
  %4 = getelementptr inbounds i8, ptr %0, i64 32
  %5 = load ptr, ptr %4, align 8
  %.not = icmp eq ptr %5, null
  br i1 %.not, label %6, label %9

6:                                                ; preds = %3
  %7 = tail call noundef nonnull align 8 dereferenceable(8) ptr @_ZStlsISt11char_traitsIcEERSt13basic_ostreamIcT_ES5_PKc(ptr noundef nonnull align 8 dereferenceable(8) @_ZSt4cerr, ptr noundef nonnull @.str.1)
  %8 = tail call noundef nonnull align 8 dereferenceable(8) ptr @_ZNSolsEPFRSoS_E(ptr noundef nonnull align 8 dereferenceable(8) %7, ptr noundef nonnull @_ZSt4endlIcSt11char_traitsIcEERSt13basic_ostreamIT_T0_ES6_)
  br label %.sink.split

9:                                                ; preds = %3
  %10 = load ptr, ptr %0, align 8
  %11 = getelementptr inbounds i8, ptr %10, i64 104
  %12 = load ptr, ptr %11, align 8
  %13 = tail call noundef i32 %12(ptr noundef nonnull align 8 dereferenceable(40) %0, ptr noundef %1, i64 noundef %2)
  %14 = icmp eq i32 %13, 0
  br i1 %14, label %.sink.split, label %16

.sink.split:                                      ; preds = %9, %6
  %15 = getelementptr inbounds i8, ptr %0, i64 8
  store i32 1, ptr %15, align 8
  br label %16

16:                                               ; preds = %.sink.split, %9
  %.0 = phi i32 [ %13, %9 ], [ 0, %.sink.split ]
  ret i32 %.0
}